; Function Attrs: mustprogress nofree norecurse nosync nounwind willreturn memory(argmem: write) uwtable
define void @_ZN7rocksdb25CacheWithSecondaryAdapter21UpdateAdmissionPolicyENS_21TieredAdmissionPolicyE(ptr noalias nocapture writeonly sret(%"class.rocksdb::Status") align 8 %agg.result, ptr nocapture noundef nonnull writeonly align 8 dereferenceable(184) %this, i32 noundef %adm_policy) local_unnamed_addr #7 align 2 personality ptr @__gxx_personality_v0 {
entry:
  %adm_policy_ = getelementptr inbounds i8, ptr %this, i64 88
  store i32 %adm_policy, ptr %adm_policy_, align 8
  %state_.i.i = getelementptr inbounds i8, ptr %agg.result, i64 8
  store ptr null, ptr %state_.i.i, align 8, !alias.scope !12
  tail call void @llvm.memset.p0.i64(ptr noundef nonnull align 8 dereferenceable(6) %agg.result, i8 0, i64 6, i1 false), !alias.scope !12
  ret void
}